Certificate:
    Data:
        Version: 3 (0x2)
        Serial Number: 2 (0x2)
    Signature Algorithm: sha1WithRSAEncryption
        Issuer: CN=Root CA, ST=California, C=US/emailAddress=ssladmin@hanks-snyder.com, O=H&S Enterprise Readiness, Inc.
        Validity
            Not Before: Jun 23 07:20:42 2014 GMT
            Not After : Jun 23 07:20:42 2015 GMT
        Subject: CN=Client Certificate, ST=California, C=US/emailAddress=ssladmin@hanks-snyder.com, O=H&S Enterprise Readiness, Inc.
        Subject Public Key Info:
            Public Key Algorithm: rsaEncryption
                Public-Key: (1024 bit)
                Modulus:
                    00:ec:93:67:a1:cc:b3:41:af:b9:3e:01:18:24:93:
                    81:4d:7d:56:5a:7d:b5:67:2a:23:1c:f2:cd:49:6d:
                    04:33:91:99:23:aa:e2:60:79:b8:98:9b:68:a3:ef:
                    77:72:26:55:cb:ec:d5:68:f8:5c:42:a7:e1:b0:ba:
                    2f:1e:66:a4:43:96:d2:30:7c:84:17:c7:5b:d2:bd:
                    42:ea:09:b5:f5:a7:52:5f:50:83:03:1b:3b:68:dc:
                    87:4a:85:62:e6:8f:60:28:25:42:38:5c:d1:07:cb:
                    26:47:b6:30:f6:c9:8f:99:81:c7:21:13:58:cb:64:
                    3d:28:3c:00:8e:de:2d:d9:55
                Exponent: 65537 (0x10001)
        X509v3 extensions:
            X509v3 Basic Constraints: 
                CA:TRUE
            X509v3 Subject Key Identifier: 
                65:13:40:C6:D2:08:08:6E:B0:0A:D5:16:6E:C0:A1:82:F5:76:7D:12
    Signature Algorithm: sha1WithRSAEncryption
         75:24:b7:b5:08:c7:36:f0:29:d6:30:64:b8:7c:36:a5:db:e7:
         8e:f4:e3:c5:a5:2b:8c:27:39:50:50:fd:10:65:51:6b:bb:a4:
         89:0e:96:ec:35:54:eb:1e:ae:3b:b4:4d:e1:ce:81:a1:cd:94:
         37:fc:7b:3e:9e:f0:c7:28:44:30:f2:5d:90:45:30:c2:4f:b7:
         51:aa:7c:a3:32:80:1e:94:b4:f4:e8:a3:cf:28:25:66:cc:01:
         70:d7:57:db:39:3e:27:2f:6d:06:ae:82:33:2a:b9:00:61:ca:
         22:84:44:9c:20:b1:e3:37:89:55:3d:75:5e:97:4b:cf:ee:25:
         92:8d
-----BEGIN CERTIFICATE-----
MIICwDCCAimgAwIBAgIBAjANBgkqhkiG9w0BAQUFADCBhzEQMA4GA1UEAxMHUm9v
dCBDQTETMBEGA1UECBMKQ2FsaWZvcm5pYTELMAkGA1UEBhMCVVMxKDAmBgkqhkiG
9w0BCQEWGXNzbGFkbWluQGhhbmtzLXNueWRlci5jb20xJzAlBgNVBAoUHkgmUyBF
bnRlcnByaXNlIFJlYWRpbmVzcywgSW5jLjAeFw0xNDA2MjMwNzIwNDJaFw0xNTA2
MjMwNzIwNDJaMIGSMRswGQYDVQQDExJDbGllbnQgQ2VydGlmaWNhdGUxEzARBgNV
BAgTCkNhbGlmb3JuaWExCzAJBgNVBAYTAlVTMSgwJgYJKoZIhvcNAQkBFhlzc2xh
ZG1pbkBoYW5rcy1zbnlkZXIuY29tMScwJQYDVQQKFB5IJlMgRW50ZXJwcmlzZSBS
ZWFkaW5lc3MsIEluYy4wgZ8wDQYJKoZIhvcNAQEBBQADgY0AMIGJAoGBAOyTZ6HM
s0GvuT4BGCSTgU19Vlp9tWcqIxzyzUltBDORmSOq4mB5uJibaKPvd3ImVcvs1Wj4
XEKn4bC6Lx5mpEOW0jB8hBfHW9K9QuoJtfWnUl9QgwMbO2jch0qFYuaPYCglQjhc
0QfLJke2MPbJj5mBxyETWMtkPSg8AI7eLdlVAgMBAAGjLzAtMAwGA1UdEwQFMAMB
Af8wHQYDVR0OBBYEFGUTQMbSCAhusArVFm7AoYL1dn0SMA0GCSqGSIb3DQEBBQUA
A4GBAHUkt7UIxzbwKdYwZLh8NqXb547048WlK4wnOVBQ/RBlUWu7pIkOluw1VOse
rju0TeHOgaHNlDf8ez6e8McoRDDyXZBFMMJPt1GqfKMygB6UtPToo88oJWbMAXDX
V9s5PicvbQaugjMquQBhyiKERJwgseM3iVU9dV6XS8/uJZKN
-----END CERTIFICATE-----
