Certificate:
    Data:
        Version: 3 (0x2)
        Serial Number: 3 (0x3)
    Signature Algorithm: sha1WithRSAEncryption
        Issuer: CN=Root CA, ST=California, C=US/emailAddress=ssladmin@hanks-snyder.com, O=H&S Enterprise Readiness, Inc.
        Validity
            Not Before: Jun 23 07:20:46 2014 GMT
            Not After : Jun 23 07:20:46 2015 GMT
        Subject: CN=Server Certificate, ST=California, C=US/emailAddress=ssladmin@hanks-snyder.com, O=H&S Enterprise Readiness, Inc.
        Subject Public Key Info:
            Public Key Algorithm: rsaEncryption
                Public-Key: (1024 bit)
                Modulus:
                    00:cb:0d:40:88:39:ec:d0:8f:60:3e:47:3b:77:ee:
                    1c:9d:d0:7b:34:41:68:03:d0:95:c0:9b:5d:a7:14:
                    2c:7c:60:ca:b8:45:16:21:97:7f:1f:3f:3b:0c:6f:
                    17:c7:ee:b9:41:ca:bb:be:8d:3a:7f:7f:c7:6d:c9:
                    88:cc:d5:5f:32:bf:cd:f3:8a:4c:94:1e:93:9c:c1:
                    2a:b0:b9:17:59:71:88:2a:44:9f:47:c4:69:75:10:
                    35:77:59:6d:22:16:8e:9a:bd:f7:71:9b:cb:aa:e5:
                    b5:98:87:65:4f:27:2f:38:ac:b8:ef:5e:a7:ac:d6:
                    45:29:4c:59:d4:d5:76:a6:11
                Exponent: 65537 (0x10001)
        X509v3 extensions:
            X509v3 Basic Constraints: 
                CA:TRUE
            X509v3 Subject Key Identifier: 
                05:07:EC:60:17:11:99:CF:FA:3B:89:92:7B:C8:D3:15:91:35:B5:DE
    Signature Algorithm: sha1WithRSAEncryption
         07:02:eb:13:56:5f:5f:ab:7d:3a:c3:60:e9:15:72:02:ce:2e:
         ab:ca:4e:c3:04:d1:f9:3b:b9:10:6b:a6:e5:70:09:c9:bf:c6:
         89:29:a7:8e:9f:ad:f4:fb:04:77:d9:9c:ab:41:6d:e6:61:e1:
         0b:41:0f:5e:11:67:8e:54:68:c4:76:55:f9:50:a4:d2:ee:ea:
         5c:86:00:5c:2c:f3:a6:a6:d3:65:19:58:5e:c0:18:5c:fc:a4:
         1c:46:fe:da:36:a6:71:84:24:e9:17:fa:77:4a:14:e3:d2:d2:
         02:78:8c:7c:46:1e:c9:f4:98:19:a9:f4:9d:24:11:7a:ad:5b:
         64:6b
-----BEGIN CERTIFICATE-----
MIICwDCCAimgAwIBAgIBAzANBgkqhkiG9w0BAQUFADCBhzEQMA4GA1UEAxMHUm9v
dCBDQTETMBEGA1UECBMKQ2FsaWZvcm5pYTELMAkGA1UEBhMCVVMxKDAmBgkqhkiG
9w0BCQEWGXNzbGFkbWluQGhhbmtzLXNueWRlci5jb20xJzAlBgNVBAoUHkgmUyBF
bnRlcnByaXNlIFJlYWRpbmVzcywgSW5jLjAeFw0xNDA2MjMwNzIwNDZaFw0xNTA2
MjMwNzIwNDZaMIGSMRswGQYDVQQDExJTZXJ2ZXIgQ2VydGlmaWNhdGUxEzARBgNV
BAgTCkNhbGlmb3JuaWExCzAJBgNVBAYTAlVTMSgwJgYJKoZIhvcNAQkBFhlzc2xh
ZG1pbkBoYW5rcy1zbnlkZXIuY29tMScwJQYDVQQKFB5IJlMgRW50ZXJwcmlzZSBS
ZWFkaW5lc3MsIEluYy4wgZ8wDQYJKoZIhvcNAQEBBQADgY0AMIGJAoGBAMsNQIg5
7NCPYD5HO3fuHJ3QezRBaAPQlcCbXacULHxgyrhFFiGXfx8/OwxvF8fuuUHKu76N
On9/x23JiMzVXzK/zfOKTJQek5zBKrC5F1lxiCpEn0fEaXUQNXdZbSIWjpq993Gb
y6rltZiHZU8nLzisuO9ep6zWRSlMWdTVdqYRAgMBAAGjLzAtMAwGA1UdEwQFMAMB
Af8wHQYDVR0OBBYEFAUH7GAXEZnP+juJknvI0xWRNbXeMA0GCSqGSIb3DQEBBQUA
A4GBAAcC6xNWX1+rfTrDYOkVcgLOLqvKTsME0fk7uRBrpuVwCcm/xokpp46frfT7
BHfZnKtBbeZh4QtBD14RZ45UaMR2VflQpNLu6lyGAFws86am02UZWF7AGFz8pBxG
/to2pnGEJOkX+ndKFOPS0gJ4jHxGHsn0mBmp9J0kEXqtW2Rr
-----END CERTIFICATE-----
