Certificate:
    Data:
        Version: 3 (0x2)
        Serial Number: 1 (0x1)
        Signature Algorithm: sha1WithRSAEncryption
        Issuer: CN=Root CA, ST=California, C=US/emailAddress=ssladmin@hanks-snyder.com, O=H&S Enterprise Readiness, Inc.
        Validity
            Not Before: Aug 21 10:40:20 2007 GMT
            Not After : Aug 20 10:40:20 2010 GMT
        Subject: CN=Root CA, ST=California, C=US/emailAddress=ssladmin@hanks-snyder.com, O=H&S Enterprise Readiness, Inc.
        Subject Public Key Info:
            Public Key Algorithm: rsaEncryption
            RSA Public Key: (1024 bit)
                Modulus (1024 bit):
                    00:c0:61:59:81:6b:30:02:8e:a2:0f:c3:64:7c:a4:
                    ba:11:5f:f0:84:54:bd:70:2f:36:a2:9b:42:9a:c8:
                    ee:e1:36:f6:15:6f:5b:43:9b:6f:0c:b8:ec:27:d1:
                    df:f6:cf:88:52:fa:ff:a6:cc:8d:bd:1b:92:10:0b:
                    38:17:d5:b6:4e:9c:79:cb:11:90:d7:f2:ff:79:bc:
                    32:e0:03:55:0d:18:db:5c:eb:67:8a:c0:56:1a:7e:
                    b0:cf:41:82:30:94:d3:72:08:00:65:e2:35:98:2b:
                    54:73:05:cb:75:0b:fb:f7:1a:7b:79:db:71:d2:aa:
                    75:30:12:4a:60:bc:6b:b2:d9
                Exponent: 65537 (0x10001)
        X509v3 extensions:
            X509v3 Basic Constraints: 
                CA:TRUE
            X509v3 Subject Key Identifier: 
                62:F1:AC:48:00:03:59:D1:2E:2B:EF:82:DA:3F:1D:F1:B2:85:5A:5D
    Signature Algorithm: sha1WithRSAEncryption
        a4:05:c4:b9:ba:92:31:63:50:bf:29:ac:63:db:e8:4f:ad:41:
        af:cb:4d:42:db:23:f2:b3:70:da:72:d9:08:a3:b8:b9:20:5c:
        cc:96:38:9a:ca:e6:0d:4d:40:dd:e2:08:c3:1c:26:71:67:75:
        4b:5a:13:59:9c:85:7f:63:cc:9a:34:b7:d6:ac:da:83:4e:22:
        07:5c:08:2d:34:d7:59:d6:3d:6b:80:cb:96:44:cd:a8:02:b2:
        a4:f6:12:77:0a:46:c9:ec:f0:5b:b9:52:21:1d:84:37:a6:64:
        9e:32:25:c3:36:fa:91:e1:17:97:71:bb:9f:30:0b:b3:ca:6c:
        9a:32
-----BEGIN CERTIFICATE-----
MIICtTCCAh6gAwIBAgIBATANBgkqhkiG9w0BAQUFADCBhzEQMA4GA1UEAxMHUm9v
dCBDQTETMBEGA1UECBMKQ2FsaWZvcm5pYTELMAkGA1UEBhMCVVMxKDAmBgkqhkiG
9w0BCQEWGXNzbGFkbWluQGhhbmtzLXNueWRlci5jb20xJzAlBgNVBAoUHkgmUyBF
bnRlcnByaXNlIFJlYWRpbmVzcywgSW5jLjAeFw0wNzA4MjExMDQwMjBaFw0xMDA4
MjAxMDQwMjBaMIGHMRAwDgYDVQQDEwdSb290IENBMRMwEQYDVQQIEwpDYWxpZm9y
bmlhMQswCQYDVQQGEwJVUzEoMCYGCSqGSIb3DQEJARYZc3NsYWRtaW5AaGFua3Mt
c255ZGVyLmNvbTEnMCUGA1UEChQeSCZTIEVudGVycHJpc2UgUmVhZGluZXNzLCBJ
bmMuMIGfMA0GCSqGSIb3DQEBAQUAA4GNADCBiQKBgQDAYVmBazACjqIPw2R8pLoR
X/CEVL1wLzaim0KayO7hNvYVb1tDm28MuOwn0d/2z4hS+v+mzI29G5IQCzgX1bZO
nHnLEZDX8v95vDLgA1UNGNtc62eKwFYafrDPQYIwlNNyCABl4jWYK1RzBct1C/v3
Gnt523HSqnUwEkpgvGuy2QIDAQABoy8wLTAMBgNVHRMEBTADAQH/MB0GA1UdDgQW
BBRi8axIAANZ0S4r74LaPx3xsoVaXTANBgkqhkiG9w0BAQUFAAOBgQCkBcS5upIx
Y1C/Kaxj2+hPrUGvy01C2yPys3DactkIo7i5IFzMljiayuYNTUDd4gjDHCZxZ3VL
WhNZnIV/Y8yaNLfWrNqDTiIHXAgtNNdZ1j1rgMuWRM2oArKk9hJ3CkbJ7PBbuVIh
HYQ3pmSeMiXDNvqR4ReXcbufMAuzymyaMg==
-----END CERTIFICATE-----
