Certificate:
    Data:
        Version: 3 (0x2)
        Serial Number: 2 (0x2)
        Signature Algorithm: sha1WithRSAEncryption
        Issuer: CN=Root CA, ST=California, C=US/emailAddress=ssladmin@hanks-snyder.com, O=H&S Enterprise Readiness, Inc.
        Validity
            Not Before: Aug 21 10:40:23 2007 GMT
            Not After : Aug 20 10:40:23 2008 GMT
        Subject: CN=Client Certificate, ST=California, C=US/emailAddress=ssladmin@hanks-snyder.com, O=H&S Enterprise Readiness, Inc.
        Subject Public Key Info:
            Public Key Algorithm: rsaEncryption
            RSA Public Key: (1024 bit)
                Modulus (1024 bit):
                    00:fe:3d:cd:c5:de:16:35:da:c7:08:58:54:55:5a:
                    0a:86:df:99:38:85:c0:11:02:70:03:fc:5b:33:08:
                    e1:94:67:39:87:61:e4:81:8b:68:8b:88:36:dd:56:
                    16:46:4d:3a:22:4b:9b:f8:19:ad:11:9f:35:f6:15:
                    87:23:30:70:68:ae:f0:bd:5e:c9:6b:fe:cc:2b:a3:
                    f6:11:6d:34:ed:53:c6:c4:5e:c5:9a:a8:f5:99:ec:
                    7d:f3:48:f8:f7:6a:49:92:5e:d3:e8:0c:38:95:c8:
                    c6:2d:4c:f7:0b:b9:9a:62:e8:9a:4b:17:15:9f:2c:
                    a1:b2:f7:ea:43:7f:b3:4b:89
                Exponent: 65537 (0x10001)
        X509v3 extensions:
            X509v3 Basic Constraints: 
                CA:TRUE
            X509v3 Subject Key Identifier: 
                8E:2D:1F:54:69:86:BA:27:CF:07:F9:01:23:E4:58:5F:9E:0A:95:41
    Signature Algorithm: sha1WithRSAEncryption
        60:a3:8c:0a:e7:d1:2d:51:40:e9:f3:66:86:1c:86:c3:8c:62:
        c4:ee:b7:de:5c:a1:20:e3:4a:ab:24:82:ca:f5:bc:f6:2a:86:
        d9:db:7b:10:5d:5e:9a:89:33:f0:2b:1b:4a:d0:58:33:28:30:
        76:e1:16:27:e0:eb:00:8c:59:a4:8d:19:52:e3:0b:25:17:6d:
        c7:66:23:e7:e0:3a:e8:e5:92:a5:0c:b3:63:ba:12:7b:fd:ba:
        50:17:11:eb:69:67:70:e3:ab:ff:d5:c8:17:53:f5:c9:cc:bb:
        51:4d:e5:b6:e7:2b:c9:16:e8:a5:49:86:a8:a2:86:e8:36:8f:
        b6:a9
-----BEGIN CERTIFICATE-----
MIICwDCCAimgAwIBAgIBAjANBgkqhkiG9w0BAQUFADCBhzEQMA4GA1UEAxMHUm9v
dCBDQTETMBEGA1UECBMKQ2FsaWZvcm5pYTELMAkGA1UEBhMCVVMxKDAmBgkqhkiG
9w0BCQEWGXNzbGFkbWluQGhhbmtzLXNueWRlci5jb20xJzAlBgNVBAoUHkgmUyBF
bnRlcnByaXNlIFJlYWRpbmVzcywgSW5jLjAeFw0wNzA4MjExMDQwMjNaFw0wODA4
MjAxMDQwMjNaMIGSMRswGQYDVQQDExJDbGllbnQgQ2VydGlmaWNhdGUxEzARBgNV
BAgTCkNhbGlmb3JuaWExCzAJBgNVBAYTAlVTMSgwJgYJKoZIhvcNAQkBFhlzc2xh
ZG1pbkBoYW5rcy1zbnlkZXIuY29tMScwJQYDVQQKFB5IJlMgRW50ZXJwcmlzZSBS
ZWFkaW5lc3MsIEluYy4wgZ8wDQYJKoZIhvcNAQEBBQADgY0AMIGJAoGBAP49zcXe
FjXaxwhYVFVaCobfmTiFwBECcAP8WzMI4ZRnOYdh5IGLaIuINt1WFkZNOiJLm/gZ
rRGfNfYVhyMwcGiu8L1eyWv+zCuj9hFtNO1TxsRexZqo9ZnsffNI+PdqSZJe0+gM
OJXIxi1M9wu5mmLomksXFZ8sobL36kN/s0uJAgMBAAGjLzAtMAwGA1UdEwQFMAMB
Af8wHQYDVR0OBBYEFI4tH1Rphronzwf5ASPkWF+eCpVBMA0GCSqGSIb3DQEBBQUA
A4GBAGCjjArn0S1RQOnzZoYchsOMYsTut95coSDjSqskgsr1vPYqhtnbexBdXpqJ
M/ArG0rQWDMoMHbhFifg6wCMWaSNGVLjCyUXbcdmI+fgOujlkqUMs2O6Env9ulAX
EetpZ3Djq//VyBdT9cnMu1FN5bbnK8kW6KVJhqiihug2j7ap
-----END CERTIFICATE-----
