Certificate:
    Data:
        Version: 3 (0x2)
        Serial Number: 3 (0x3)
        Signature Algorithm: sha1WithRSAEncryption
        Issuer: CN=Root CA, ST=California, C=US/emailAddress=ssladmin@hanks-snyder.com, O=H&S Enterprise Readiness, Inc.
        Validity
            Not Before: Aug 21 10:40:26 2007 GMT
            Not After : Aug 20 10:40:26 2008 GMT
        Subject: CN=Server Certificate, ST=California, C=US/emailAddress=ssladmin@hanks-snyder.com, O=H&S Enterprise Readiness, Inc.
        Subject Public Key Info:
            Public Key Algorithm: rsaEncryption
            RSA Public Key: (1024 bit)
                Modulus (1024 bit):
                    00:b3:c5:1a:b2:27:29:60:bd:44:73:78:79:45:3f:
                    d3:a0:39:37:78:49:57:d0:e0:11:bf:0e:53:5e:f6:
                    ae:62:37:04:dd:46:ab:7f:06:e9:a0:5b:8b:47:19:
                    6f:f0:4b:2d:59:dd:51:64:95:8e:43:a5:3b:55:cc:
                    3c:cd:e0:69:93:7f:ef:17:bb:95:59:92:2c:95:12:
                    b4:46:8a:fa:74:6c:78:35:b2:d1:e7:0f:1e:d6:a8:
                    50:9c:ee:14:dc:a5:12:aa:f4:95:3b:e9:9c:76:7f:
                    e0:64:6c:6e:64:1c:8d:44:dd:cd:53:05:6b:70:47:
                    2e:ab:26:f6:b8:eb:51:ad:05
                Exponent: 65537 (0x10001)
        X509v3 extensions:
            X509v3 Basic Constraints: 
                CA:TRUE
            X509v3 Subject Key Identifier: 
                97:02:ED:79:9E:02:52:33:D9:03:D4:98:03:8A:28:3B:7E:44:FB:3B
    Signature Algorithm: sha1WithRSAEncryption
        21:98:42:96:bd:91:85:2e:01:37:e4:b8:3d:e8:81:6c:94:79:
        88:d6:17:80:2d:d2:a0:34:ff:9c:26:ba:c9:19:01:69:2d:a9:
        3c:52:90:9d:dc:b3:4d:66:b2:e0:34:50:6b:bd:cb:48:96:07:
        56:d6:d6:83:40:00:74:33:9e:2e:3c:52:54:6d:58:00:c7:64:
        3f:30:0b:20:b1:c2:62:a3:c7:42:13:b3:e1:61:f2:ec:79:8e:
        2b:28:89:61:12:7e:eb:46:28:16:de:39:bd:0c:84:e4:26:57:
        8b:50:41:c6:13:bc:e0:ec:66:6d:0a:a7:73:f4:66:82:ac:ae:
        bd:62
-----BEGIN CERTIFICATE-----
MIICwDCCAimgAwIBAgIBAzANBgkqhkiG9w0BAQUFADCBhzEQMA4GA1UEAxMHUm9v
dCBDQTETMBEGA1UECBMKQ2FsaWZvcm5pYTELMAkGA1UEBhMCVVMxKDAmBgkqhkiG
9w0BCQEWGXNzbGFkbWluQGhhbmtzLXNueWRlci5jb20xJzAlBgNVBAoUHkgmUyBF
bnRlcnByaXNlIFJlYWRpbmVzcywgSW5jLjAeFw0wNzA4MjExMDQwMjZaFw0wODA4
MjAxMDQwMjZaMIGSMRswGQYDVQQDExJTZXJ2ZXIgQ2VydGlmaWNhdGUxEzARBgNV
BAgTCkNhbGlmb3JuaWExCzAJBgNVBAYTAlVTMSgwJgYJKoZIhvcNAQkBFhlzc2xh
ZG1pbkBoYW5rcy1zbnlkZXIuY29tMScwJQYDVQQKFB5IJlMgRW50ZXJwcmlzZSBS
ZWFkaW5lc3MsIEluYy4wgZ8wDQYJKoZIhvcNAQEBBQADgY0AMIGJAoGBALPFGrIn
KWC9RHN4eUU/06A5N3hJV9DgEb8OU172rmI3BN1Gq38G6aBbi0cZb/BLLVndUWSV
jkOlO1XMPM3gaZN/7xe7lVmSLJUStEaK+nRseDWy0ecPHtaoUJzuFNylEqr0lTvp
nHZ/4GRsbmQcjUTdzVMFa3BHLqsm9rjrUa0FAgMBAAGjLzAtMAwGA1UdEwQFMAMB
Af8wHQYDVR0OBBYEFJcC7XmeAlIz2QPUmAOKKDt+RPs7MA0GCSqGSIb3DQEBBQUA
A4GBACGYQpa9kYUuATfkuD3ogWyUeYjWF4At0qA0/5wmuskZAWktqTxSkJ3cs01m
suA0UGu9y0iWB1bW1oNAAHQzni48UlRtWADHZD8wCyCxwmKjx0ITs+Fh8ux5jiso
iWESfutGKBbeOb0MhOQmV4tQQcYTvODsZm0Kp3P0ZoKsrr1i
-----END CERTIFICATE-----
