-----BEGIN RSA PRIVATE KEY-----
MIICXgIBAAKBgQClWpLZ1YXu/YN5vuZIE/W+5n2FHBJsdnpBef3qBstYyxM1Is5k
NurKW6ClO+sRRIsbyDwprWSTw9zdDHX2PWxFfoD7zfFiW7h188A/wpfgrjpknbmc
4N4vgI872Ago8oMezPv0ioWr6u0zK4Of7Ne9UDlrizKWT4SMl7ChGQ+CWQIDAQAB
AoGBAIAgRLYia9uZ+Sx3Lb0gKkW4F/7yl5wP2f+uZX/Xr+2nvcRoqgChRSF0CnC+
kxEYSapHZ8broomVNSjbpPQe+CtKVSQ9eXLKShBEsKjrWzqjaITn7tuxTFyUhs6J
QM1AMnC7zI90dbMp8FIojwMF3NUOJ7YtpWFYl0RulikG+Vu5AkEAzzfvQbv8KN/5
d2nsoJDThRMSlX1d2z0kJ3gSq9WXi9iuxiw+B41xzSU2MZ9WEGa+eeLhU+KrjbKF
50LopMl7YwJBAMxHp57h8lLsWw8cX6KJNDn8N4ss7ttSy84HObUUDm1ARrfZqv4R
oFKTJXPCxuruLtL3eNuI/OzzD4rMZTgPXhMCQQCsEXJnT0YwWuu4MQkAu8IoupGv
+I47QyYGcDpw3cgdpCxc+tf3RYi+JKw/wGOi8u4wICmjkpGJ9DgktPah/3ypAkEA
n1RUHMxGYP8QltyeivtQzNk3yUmmk1Iku/FOxTl7dyLnBYa0o63DyiQS1hNZauuT
geCbVz+lZnq96Jg7aloyGQJACSffc2QiuI39vuc0x9DItdOXZpHdPieI61cKm8YE
EiL+fwOcS1Cl0u1yhHDweTenlxmLGVtcRcdvWoQtNds2yA==
-----END RSA PRIVATE KEY-----
Certificate:
    Data:
        Version: 3 (0x2)
        Serial Number: 2 (0x2)
        Signature Algorithm: sha1WithRSAEncryption
        Issuer: CN=Root CA, ST=California, C=US/emailAddress=ssladmin@hanks-snyder.com, O=H&S Enterprise Readiness, Inc.
        Validity
            Not Before: Aug 20 19:33:53 2007 GMT
            Not After : Aug 19 19:33:53 2008 GMT
        Subject: CN=Client Certificate, ST=California, C=US/emailAddress=ssladmin@hanks-snyder.com, O=H&S Enterprise Readiness, Inc.
        Subject Public Key Info:
            Public Key Algorithm: rsaEncryption
            RSA Public Key: (1024 bit)
                Modulus (1024 bit):
                    00:a5:5a:92:d9:d5:85:ee:fd:83:79:be:e6:48:13:
                    f5:be:e6:7d:85:1c:12:6c:76:7a:41:79:fd:ea:06:
                    cb:58:cb:13:35:22:ce:64:36:ea:ca:5b:a0:a5:3b:
                    eb:11:44:8b:1b:c8:3c:29:ad:64:93:c3:dc:dd:0c:
                    75:f6:3d:6c:45:7e:80:fb:cd:f1:62:5b:b8:75:f3:
                    c0:3f:c2:97:e0:ae:3a:64:9d:b9:9c:e0:de:2f:80:
                    8f:3b:d8:08:28:f2:83:1e:cc:fb:f4:8a:85:ab:ea:
                    ed:33:2b:83:9f:ec:d7:bd:50:39:6b:8b:32:96:4f:
                    84:8c:97:b0:a1:19:0f:82:59
                Exponent: 65537 (0x10001)
        X509v3 extensions:
            X509v3 Basic Constraints: 
                CA:TRUE
            X509v3 Subject Key Identifier: 
                61:18:4E:89:F3:95:1A:86:4E:BB:21:C8:E8:26:D1:FB:A2:BB:3B:4A
    Signature Algorithm: sha1WithRSAEncryption
        23:c8:7f:d0:f8:e2:ea:88:0e:d0:59:a0:00:55:4d:9b:c6:97:
        87:1e:b9:f5:4e:d6:2d:95:53:41:36:91:25:82:e2:62:48:19:
        f2:e9:2b:e8:65:11:c2:18:36:f3:e9:55:25:7d:16:43:92:a1:
        09:20:10:db:70:b0:da:e2:6c:a9:36:56:70:76:ab:89:c5:06:
        40:81:e6:ee:38:12:e7:29:57:37:64:0e:37:00:ac:b9:61:11:
        a5:d6:bc:48:b9:e3:d1:f4:b1:4b:ba:bc:36:b9:f0:59:11:83:
        d3:a6:f0:d9:31:5f:fd:b4:a5:f4:ae:af:90:6f:40:2b:40:f3:
        cf:52
-----BEGIN CERTIFICATE-----
MIICwDCCAimgAwIBAgIBAjANBgkqhkiG9w0BAQUFADCBhzEQMA4GA1UEAxMHUm9v
dCBDQTETMBEGA1UECBMKQ2FsaWZvcm5pYTELMAkGA1UEBhMCVVMxKDAmBgkqhkiG
9w0BCQEWGXNzbGFkbWluQGhhbmtzLXNueWRlci5jb20xJzAlBgNVBAoUHkgmUyBF
bnRlcnByaXNlIFJlYWRpbmVzcywgSW5jLjAeFw0wNzA4MjAxOTMzNTNaFw0wODA4
MTkxOTMzNTNaMIGSMRswGQYDVQQDExJDbGllbnQgQ2VydGlmaWNhdGUxEzARBgNV
BAgTCkNhbGlmb3JuaWExCzAJBgNVBAYTAlVTMSgwJgYJKoZIhvcNAQkBFhlzc2xh
ZG1pbkBoYW5rcy1zbnlkZXIuY29tMScwJQYDVQQKFB5IJlMgRW50ZXJwcmlzZSBS
ZWFkaW5lc3MsIEluYy4wgZ8wDQYJKoZIhvcNAQEBBQADgY0AMIGJAoGBAKVaktnV
he79g3m+5kgT9b7mfYUcEmx2ekF5/eoGy1jLEzUizmQ26spboKU76xFEixvIPCmt
ZJPD3N0MdfY9bEV+gPvN8WJbuHXzwD/Cl+CuOmSduZzg3i+AjzvYCCjygx7M+/SK
havq7TMrg5/s171QOWuLMpZPhIyXsKEZD4JZAgMBAAGjLzAtMAwGA1UdEwQFMAMB
Af8wHQYDVR0OBBYEFGEYTonzlRqGTrshyOgm0fuiuztKMA0GCSqGSIb3DQEBBQUA
A4GBACPIf9D44uqIDtBZoABVTZvGl4ceufVO1i2VU0E2kSWC4mJIGfLpK+hlEcIY
NvPpVSV9FkOSoQkgENtwsNribKk2VnB2q4nFBkCB5u44EucpVzdkDjcArLlhEaXW
vEi549H0sUu6vDa58FkRg9Om8NkxX/20pfSur5BvQCtA889S
-----END CERTIFICATE-----
