Certificate:
    Data:
        Version: 3 (0x2)
        Serial Number: 1 (0x1)
        Signature Algorithm: sha1WithRSAEncryption
        Issuer: CN=Root CA, ST=California, C=US/emailAddress=ssladmin@hanks-snyder.com, O=H&S Enterprise Readiness, Inc.
        Validity
            Not Before: Aug 20 19:33:52 2007 GMT
            Not After : Aug 19 19:33:52 2010 GMT
        Subject: CN=Root CA, ST=California, C=US/emailAddress=ssladmin@hanks-snyder.com, O=H&S Enterprise Readiness, Inc.
        Subject Public Key Info:
            Public Key Algorithm: rsaEncryption
            RSA Public Key: (1024 bit)
                Modulus (1024 bit):
                    00:b5:de:e3:08:cc:c5:1c:6c:07:70:09:c0:67:1f:
                    12:a8:03:ca:10:dc:69:c2:ec:be:ed:69:67:fd:53:
                    35:37:23:63:9a:d5:5c:c7:44:1c:f2:be:3f:ff:c5:
                    69:4a:70:dc:7f:d5:36:93:72:8d:02:05:c7:04:34:
                    c1:b3:9d:5c:b1:0d:89:13:bb:f9:ad:49:97:f3:2b:
                    b7:f5:db:37:6d:ac:2b:e7:9b:8d:f8:65:0a:b2:7d:
                    4a:94:53:a6:45:ed:e0:0f:d0:14:2f:d6:a5:89:a3:
                    ac:4b:13:85:74:bc:cd:5e:2e:4d:a8:f5:9c:f1:bd:
                    16:ee:0c:e4:1e:67:04:b5:2f
                Exponent: 65537 (0x10001)
        X509v3 extensions:
            X509v3 Basic Constraints: 
                CA:TRUE
            X509v3 Subject Key Identifier: 
                89:A6:7F:C0:54:CF:76:25:17:2C:57:02:DD:18:35:8A:90:EC:02:7E
    Signature Algorithm: sha1WithRSAEncryption
        a7:3c:b8:28:12:af:e8:9b:2f:a0:03:43:3a:2d:ac:42:aa:52:
        2b:6f:c8:99:0c:45:75:86:65:32:0a:af:22:f3:20:1e:69:fb:
        41:16:6e:50:5c:10:50:63:20:44:dc:93:a7:57:dc:10:b0:a5:
        b3:cf:d7:6a:bc:b9:bf:7b:ff:73:05:92:ff:62:58:93:67:2d:
        b3:f5:0f:a8:bf:59:8d:e0:47:79:c7:b0:0d:ae:b1:08:93:ad:
        0b:c0:15:10:a5:1c:17:1f:0d:d3:56:67:50:43:17:1d:c6:d7:
        39:a5:79:7a:a9:c8:5a:68:68:74:4d:bc:0c:85:4a:04:b7:b5:
        ac:c9
-----BEGIN CERTIFICATE-----
MIICtTCCAh6gAwIBAgIBATANBgkqhkiG9w0BAQUFADCBhzEQMA4GA1UEAxMHUm9v
dCBDQTETMBEGA1UECBMKQ2FsaWZvcm5pYTELMAkGA1UEBhMCVVMxKDAmBgkqhkiG
9w0BCQEWGXNzbGFkbWluQGhhbmtzLXNueWRlci5jb20xJzAlBgNVBAoUHkgmUyBF
bnRlcnByaXNlIFJlYWRpbmVzcywgSW5jLjAeFw0wNzA4MjAxOTMzNTJaFw0xMDA4
MTkxOTMzNTJaMIGHMRAwDgYDVQQDEwdSb290IENBMRMwEQYDVQQIEwpDYWxpZm9y
bmlhMQswCQYDVQQGEwJVUzEoMCYGCSqGSIb3DQEJARYZc3NsYWRtaW5AaGFua3Mt
c255ZGVyLmNvbTEnMCUGA1UEChQeSCZTIEVudGVycHJpc2UgUmVhZGluZXNzLCBJ
bmMuMIGfMA0GCSqGSIb3DQEBAQUAA4GNADCBiQKBgQC13uMIzMUcbAdwCcBnHxKo
A8oQ3GnC7L7taWf9UzU3I2Oa1VzHRBzyvj//xWlKcNx/1TaTco0CBccENMGznVyx
DYkTu/mtSZfzK7f12zdtrCvnm434ZQqyfUqUU6ZF7eAP0BQv1qWJo6xLE4V0vM1e
Lk2o9ZzxvRbuDOQeZwS1LwIDAQABoy8wLTAMBgNVHRMEBTADAQH/MB0GA1UdDgQW
BBSJpn/AVM92JRcsVwLdGDWKkOwCfjANBgkqhkiG9w0BAQUFAAOBgQCnPLgoEq/o
my+gA0M6LaxCqlIrb8iZDEV1hmUyCq8i8yAeaftBFm5QXBBQYyBE3JOnV9wQsKWz
z9dqvLm/e/9zBZL/YliTZy2z9Q+ov1mN4Ed5x7ANrrEIk60LwBUQpRwXHw3TVmdQ
Qxcdxtc5pXl6qchaaGh0TbwMhUoEt7WsyQ==
-----END CERTIFICATE-----
