-----BEGIN RSA PRIVATE KEY-----
MIICXQIBAAKBgQDQD9ohbm6WVH3eNh7U5PeoFIyrwUSxQQP5av3Y+/YQ1sFCO1Ps
iO/hwNQqYnooBTpK9Ee3DATEYhzzkn2MXVbccaUR9Gb9yqBxJtyGg71gZqFPutFS
kBa9tojoRBavSgk39B0SPeA8uF2BCEDJslTVpnkdnDAzps9g+O1Uexws6QIDAQAB
AoGAJhjA+B4gYaZW5blDK/hA4KXinBBnY41kDOdqU7DO/YZVHKuAUm9AfTWxo5Ek
jO9oHRFdkEbDGLJeWrsYAfuVS7Ni76/U/jXy+LLwf++IAliI/IlDF5KX0gdoNmMq
FVoxVAbsy7XLEl34/LeOVy/q1+a1uCRBzrofddrmg6odwYECQQDy0behPD7RcEzP
tc/GL/pdXDBTk+fV4uBofexDn/63LMBSwuyojfTUBwc8ULFcw5ymkBi84l3F+saz
bSMM7VePAkEA21sjT6df2Ws4sb/pQdH3br7e1+NJfyo1YqVQaObOhRC6sma4TSfI
ClMs/Cva7nD4dFsMgpcokVamrga1g1C4BwJBAOGXM4pJpXcBZWtoV6OiOXF5T7Cm
bjJJeQG7U8C0KXpWyktZq3Mhh79g1DkWIuGzHpukrkb16/ceeHKER5cf/kMCQQCw
6Jze5dcIq0/LE0LVIbiTaX6h0J364Bi0GS1znQncCXT44p0rJLVRlmlGazwjZ5sJ
hFDflXdTV/YPjjufz17LAkBpj1lcNImf5H868+aGEWGaildQAYU7r5bsI/P70oOu
i1ge3Pg9JBIvsYkXMLt9GDl2ryXYIA0DSJ6NF2GaY2PO
-----END RSA PRIVATE KEY-----
Certificate:
    Data:
        Version: 3 (0x2)
        Serial Number: 3 (0x3)
        Signature Algorithm: sha1WithRSAEncryption
        Issuer: CN=Root CA, ST=California, C=US/emailAddress=ssladmin@hanks-snyder.com, O=H&S Enterprise Readiness, Inc.
        Validity
            Not Before: Aug 20 19:33:55 2007 GMT
            Not After : Aug 19 19:33:55 2008 GMT
        Subject: CN=Server Certificate, ST=California, C=US/emailAddress=ssladmin@hanks-snyder.com, O=H&S Enterprise Readiness, Inc.
        Subject Public Key Info:
            Public Key Algorithm: rsaEncryption
            RSA Public Key: (1024 bit)
                Modulus (1024 bit):
                    00:d0:0f:da:21:6e:6e:96:54:7d:de:36:1e:d4:e4:
                    f7:a8:14:8c:ab:c1:44:b1:41:03:f9:6a:fd:d8:fb:
                    f6:10:d6:c1:42:3b:53:ec:88:ef:e1:c0:d4:2a:62:
                    7a:28:05:3a:4a:f4:47:b7:0c:04:c4:62:1c:f3:92:
                    7d:8c:5d:56:dc:71:a5:11:f4:66:fd:ca:a0:71:26:
                    dc:86:83:bd:60:66:a1:4f:ba:d1:52:90:16:bd:b6:
                    88:e8:44:16:af:4a:09:37:f4:1d:12:3d:e0:3c:b8:
                    5d:81:08:40:c9:b2:54:d5:a6:79:1d:9c:30:33:a6:
                    cf:60:f8:ed:54:7b:1c:2c:e9
                Exponent: 65537 (0x10001)
        X509v3 extensions:
            X509v3 Basic Constraints: 
                CA:TRUE
            X509v3 Subject Key Identifier: 
                B0:FB:40:64:B9:58:36:77:09:3F:69:14:D3:52:F7:0D:2F:22:18:40
    Signature Algorithm: sha1WithRSAEncryption
        67:f8:b4:71:cd:95:20:0d:a7:4d:3a:6d:eb:62:c0:3f:40:13:
        47:a7:15:e7:f5:ab:29:9b:33:f6:a5:65:22:ad:79:35:d8:8e:
        14:28:37:ee:ea:bd:42:c1:91:3f:a0:b7:6d:3d:1e:e1:ef:3a:
        49:6e:c5:50:d1:96:b7:63:00:6f:5c:86:6e:5b:64:6b:d9:0f:
        93:59:97:a8:ef:92:19:57:da:cb:bc:fc:a1:c2:b9:21:53:7d:
        96:67:a6:09:f1:a6:24:d0:15:72:f6:b2:d9:0a:6a:2c:75:e4:
        60:37:31:c6:2f:72:c3:94:3e:e9:c5:ae:bd:af:de:91:c0:6f:
        b9:78
-----BEGIN CERTIFICATE-----
MIICwDCCAimgAwIBAgIBAzANBgkqhkiG9w0BAQUFADCBhzEQMA4GA1UEAxMHUm9v
dCBDQTETMBEGA1UECBMKQ2FsaWZvcm5pYTELMAkGA1UEBhMCVVMxKDAmBgkqhkiG
9w0BCQEWGXNzbGFkbWluQGhhbmtzLXNueWRlci5jb20xJzAlBgNVBAoUHkgmUyBF
bnRlcnByaXNlIFJlYWRpbmVzcywgSW5jLjAeFw0wNzA4MjAxOTMzNTVaFw0wODA4
MTkxOTMzNTVaMIGSMRswGQYDVQQDExJTZXJ2ZXIgQ2VydGlmaWNhdGUxEzARBgNV
BAgTCkNhbGlmb3JuaWExCzAJBgNVBAYTAlVTMSgwJgYJKoZIhvcNAQkBFhlzc2xh
ZG1pbkBoYW5rcy1zbnlkZXIuY29tMScwJQYDVQQKFB5IJlMgRW50ZXJwcmlzZSBS
ZWFkaW5lc3MsIEluYy4wgZ8wDQYJKoZIhvcNAQEBBQADgY0AMIGJAoGBANAP2iFu
bpZUfd42HtTk96gUjKvBRLFBA/lq/dj79hDWwUI7U+yI7+HA1CpieigFOkr0R7cM
BMRiHPOSfYxdVtxxpRH0Zv3KoHEm3IaDvWBmoU+60VKQFr22iOhEFq9KCTf0HRI9
4Dy4XYEIQMmyVNWmeR2cMDOmz2D47VR7HCzpAgMBAAGjLzAtMAwGA1UdEwQFMAMB
Af8wHQYDVR0OBBYEFLD7QGS5WDZ3CT9pFNNS9w0vIhhAMA0GCSqGSIb3DQEBBQUA
A4GBAGf4tHHNlSANp006betiwD9AE0enFef1qymbM/alZSKteTXYjhQoN+7qvULB
kT+gt209HuHvOkluxVDRlrdjAG9chm5bZGvZD5NZl6jvkhlX2su8/KHCuSFTfZZn
pgnxpiTQFXL2stkKaix15GA3McYvcsOUPunFrr2v3pHAb7l4
-----END CERTIFICATE-----
