Certificate:
    Data:
        Version: 3 (0x2)
        Serial Number: 1 (0x1)
    Signature Algorithm: sha1WithRSAEncryption
        Issuer: CN=Root CA, ST=California, C=US/emailAddress=ssladmin@hanks-snyder.com, O=H&S Enterprise Readiness, Inc.
        Validity
            Not Before: Jun 23 07:20:39 2014 GMT
            Not After : Jun 22 07:20:39 2017 GMT
        Subject: CN=Root CA, ST=California, C=US/emailAddress=ssladmin@hanks-snyder.com, O=H&S Enterprise Readiness, Inc.
        Subject Public Key Info:
            Public Key Algorithm: rsaEncryption
                Public-Key: (1024 bit)
                Modulus:
                    00:b6:66:71:79:ef:09:82:14:4e:7c:63:7c:21:ed:
                    cb:e5:9d:f7:c9:24:55:b2:87:00:66:54:81:cf:5e:
                    df:62:81:7a:fe:f1:8d:d0:c7:dd:6d:90:1a:4b:e6:
                    dd:f2:e2:41:ae:c5:98:3c:33:33:97:fa:ef:c2:8e:
                    32:97:3c:e6:2c:f7:33:d3:3c:c1:2e:98:23:8f:94:
                    06:20:5a:90:5e:cf:d5:55:42:69:36:c4:29:94:54:
                    52:d8:c7:e1:03:28:7b:9c:d9:a8:bd:cc:c3:2d:b1:
                    de:eb:05:19:6f:ef:d7:12:35:f9:c8:58:c4:63:06:
                    8f:9d:7c:6d:3f:59:24:4a:91
                Exponent: 65537 (0x10001)
        X509v3 extensions:
            X509v3 Basic Constraints: 
                CA:TRUE
            X509v3 Subject Key Identifier: 
                BA:CE:6C:91:CC:E6:03:9C:AE:68:29:B4:BD:C0:B4:6D:5F:59:15:6C
    Signature Algorithm: sha1WithRSAEncryption
         4b:d2:fa:81:f5:4f:0e:70:18:14:c6:7d:78:ca:6e:b2:0b:73:
         80:bd:76:3f:11:12:a3:05:a8:7b:ed:48:38:f8:6d:db:44:df:
         96:54:61:6f:4a:06:9c:9e:d7:f2:07:ba:3d:aa:63:2a:89:6f:
         7d:0c:93:ed:52:25:5c:f2:4d:4e:09:af:74:bb:4a:9d:cc:88:
         f3:c3:30:0c:57:d1:82:12:5b:a7:11:51:52:5f:4c:ae:32:92:
         12:97:a8:af:3b:81:68:48:18:82:be:a5:f1:88:a7:d6:d0:1f:
         84:91:e0:ef:db:53:68:64:e3:34:62:3b:46:f5:c5:75:59:d8:
         91:97
-----BEGIN CERTIFICATE-----
MIICtTCCAh6gAwIBAgIBATANBgkqhkiG9w0BAQUFADCBhzEQMA4GA1UEAxMHUm9v
dCBDQTETMBEGA1UECBMKQ2FsaWZvcm5pYTELMAkGA1UEBhMCVVMxKDAmBgkqhkiG
9w0BCQEWGXNzbGFkbWluQGhhbmtzLXNueWRlci5jb20xJzAlBgNVBAoUHkgmUyBF
bnRlcnByaXNlIFJlYWRpbmVzcywgSW5jLjAeFw0xNDA2MjMwNzIwMzlaFw0xNzA2
MjIwNzIwMzlaMIGHMRAwDgYDVQQDEwdSb290IENBMRMwEQYDVQQIEwpDYWxpZm9y
bmlhMQswCQYDVQQGEwJVUzEoMCYGCSqGSIb3DQEJARYZc3NsYWRtaW5AaGFua3Mt
c255ZGVyLmNvbTEnMCUGA1UEChQeSCZTIEVudGVycHJpc2UgUmVhZGluZXNzLCBJ
bmMuMIGfMA0GCSqGSIb3DQEBAQUAA4GNADCBiQKBgQC2ZnF57wmCFE58Y3wh7cvl
nffJJFWyhwBmVIHPXt9igXr+8Y3Qx91tkBpL5t3y4kGuxZg8MzOX+u/CjjKXPOYs
9zPTPMEumCOPlAYgWpBez9VVQmk2xCmUVFLYx+EDKHuc2ai9zMMtsd7rBRlv79cS
NfnIWMRjBo+dfG0/WSRKkQIDAQABoy8wLTAMBgNVHRMEBTADAQH/MB0GA1UdDgQW
BBS6zmyRzOYDnK5oKbS9wLRtX1kVbDANBgkqhkiG9w0BAQUFAAOBgQBL0vqB9U8O
cBgUxn14ym6yC3OAvXY/ERKjBah77Ug4+G3bRN+WVGFvSgacntfyB7o9qmMqiW99
DJPtUiVc8k1OCa90u0qdzIjzwzAMV9GCElunEVFSX0yuMpISl6ivO4FoSBiCvqXx
iKfW0B+EkeDv21NoZOM0YjtG9cV1WdiRlw==
-----END CERTIFICATE-----
